target datalayout = "e-m:e-p270:32:32-p271:32:32-p272:64:64-i64:64-i128:128-f80:128-n8:16:32:64-S128"
target triple = "x86_64-unknown-linux-gnu"

; Function Attrs: mustprogress uwtable
define hidden noundef nonnull align 8 dereferenceable(8) ptr @_ZN4cvc58internal4kindlsERSoNS1_6Kind_tE(ptr noundef nonnull align 8 dereferenceable(8) %out, i32 noundef %k) #1 {
entry:
  %out.addr = alloca ptr, align 8
  %k.addr = alloca i32, align 4
  store ptr %out, ptr %out.addr, align 8
  store i32 %k, ptr %k.addr, align 4
  %0 = load ptr, ptr %out.addr, align 8
  %call = call noundef ptr @_ZN4cvc58internal7Printer10getPrinterERSo(ptr noundef nonnull align 8 dereferenceable(8) %0)
  %1 = load ptr, ptr %out.addr, align 8
  %2 = load i32, ptr %k.addr, align 4
  %vtable = load ptr, ptr %call, align 8
  %vfn = getelementptr inbounds ptr, ptr %vtable, i64 4
  %3 = load ptr, ptr %vfn, align 8
  call void %3(ptr noundef nonnull align 8 dereferenceable(8) %call, ptr noundef nonnull align 8 dereferenceable(8) %1, i32 noundef %2)
  %4 = load ptr, ptr %out.addr, align 8
  ret ptr %4
}