; Function Attrs: mustprogress uwtable
define hidden noundef nonnull align 8 dereferenceable(8) ptr @_ZN4cvc58internal4kindlsERSoNS1_6Kind_tE(ptr noundef nonnull returned align 8 dereferenceable(8) %out, i32 noundef %k) local_unnamed_addr #1 {
entry:
  %call = tail call noundef ptr @_ZN4cvc58internal7Printer10getPrinterERSo(ptr noundef nonnull align 8 dereferenceable(8) %out)
  %vtable = load ptr, ptr %call, align 8
  %vfn = getelementptr inbounds i8, ptr %vtable, i64 32
  %0 = load ptr, ptr %vfn, align 8
  tail call void %0(ptr noundef nonnull align 8 dereferenceable(8) %call, ptr noundef nonnull align 8 dereferenceable(8) %out, i32 noundef %k)
  ret ptr %out
}